target datalayout = "e-m:e-p270:32:32-p271:32:32-p272:64:64-i64:64-i128:128-f80:128-n8:16:32:64-S128"
target triple = "x86_64-pc-linux-gnu"

@.str.117 = private unnamed_addr constant [7 x i8] c"sample\00", align 1
@.str.118 = private unnamed_addr constant [5 x i8] c"half\00", align 1
@.str.119 = private unnamed_addr constant [8 x i8] c"half1x1\00", align 1
@.str.120 = private unnamed_addr constant [8 x i8] c"half1x2\00", align 1
@.str.121 = private unnamed_addr constant [8 x i8] c"half1x3\00", align 1
@.str.122 = private unnamed_addr constant [8 x i8] c"half1x4\00", align 1
@.str.123 = private unnamed_addr constant [8 x i8] c"half2x1\00", align 1
@.str.124 = private unnamed_addr constant [8 x i8] c"half2x2\00", align 1
@.str.125 = private unnamed_addr constant [8 x i8] c"half2x3\00", align 1
@.str.126 = private unnamed_addr constant [8 x i8] c"half2x4\00", align 1
@.str.127 = private unnamed_addr constant [8 x i8] c"half3x1\00", align 1
@.str.128 = private unnamed_addr constant [8 x i8] c"half3x2\00", align 1
@.str.129 = private unnamed_addr constant [8 x i8] c"half3x3\00", align 1
@.str.130 = private unnamed_addr constant [8 x i8] c"half3x4\00", align 1
@.str.131 = private unnamed_addr constant [8 x i8] c"half4x1\00", align 1
@.str.132 = private unnamed_addr constant [8 x i8] c"half4x2\00", align 1
@.str.133 = private unnamed_addr constant [8 x i8] c"half4x3\00", align 1
@.str.134 = private unnamed_addr constant [8 x i8] c"half4x4\00", align 1
@.str.135 = private unnamed_addr constant [5 x i8] c"bool\00", align 1
@.str.136 = private unnamed_addr constant [6 x i8] c"float\00", align 1
@.str.137 = private unnamed_addr constant [7 x i8] c"double\00", align 1
@.str.138 = private unnamed_addr constant [4 x i8] c"int\00", align 1
@.str.139 = private unnamed_addr constant [5 x i8] c"uint\00", align 1
@.str.140 = private unnamed_addr constant [11 x i8] c"min16float\00", align 1
@.str.141 = private unnamed_addr constant [11 x i8] c"min10float\00", align 1
@.str.142 = private unnamed_addr constant [9 x i8] c"min16int\00", align 1
@.str.143 = private unnamed_addr constant [9 x i8] c"min12int\00", align 1
@.str.144 = private unnamed_addr constant [15 x i8] c"ConstantBuffer\00", align 1
@.str.145 = private unnamed_addr constant [7 x i8] c"layout\00", align 1

; Function Attrs: mustprogress nounwind uwtable
define noundef ptr @_ZNK7glslang11HlslGrammar13getTypeStringENS_15EHlslTokenClassE(ptr noundef nonnull align 8 dereferenceable(360) %0, i32 noundef %1) #0 align 2 {
  %3 = alloca ptr, align 8
  %4 = alloca ptr, align 8
  %5 = alloca i32, align 4
  store ptr %0, ptr %4, align 8
  store i32 %1, ptr %5, align 4
  %6 = load i32, ptr %5, align 4
  switch i32 %6, label %36 [
    i32 15, label %7
    i32 45, label %8
    i32 161, label %9
    i32 162, label %10
    i32 163, label %11
    i32 164, label %12
    i32 165, label %13
    i32 166, label %14
    i32 167, label %15
    i32 168, label %16
    i32 169, label %17
    i32 170, label %18
    i32 171, label %19
    i32 172, label %20
    i32 173, label %21
    i32 174, label %22
    i32 175, label %23
    i32 176, label %24
    i32 40, label %25
    i32 46, label %26
    i32 47, label %27
    i32 41, label %28
    i32 42, label %29
    i32 48, label %30
    i32 49, label %31
    i32 50, label %32
    i32 51, label %33
    i32 313, label %34
    i32 22, label %35
  ]

7:                                                ; preds = %2
  store ptr @.str.117, ptr %3, align 8
  br label %37

8:                                                ; preds = %2
  store ptr @.str.118, ptr %3, align 8
  br label %37

9:                                                ; preds = %2
  store ptr @.str.119, ptr %3, align 8
  br label %37

10:                                               ; preds = %2
  store ptr @.str.120, ptr %3, align 8
  br label %37

11:                                               ; preds = %2
  store ptr @.str.121, ptr %3, align 8
  br label %37

12:                                               ; preds = %2
  store ptr @.str.122, ptr %3, align 8
  br label %37

13:                                               ; preds = %2
  store ptr @.str.123, ptr %3, align 8
  br label %37

14:                                               ; preds = %2
  store ptr @.str.124, ptr %3, align 8
  br label %37

15:                                               ; preds = %2
  store ptr @.str.125, ptr %3, align 8
  br label %37

16:                                               ; preds = %2
  store ptr @.str.126, ptr %3, align 8
  br label %37

17:                                               ; preds = %2
  store ptr @.str.127, ptr %3, align 8
  br label %37

18:                                               ; preds = %2
  store ptr @.str.128, ptr %3, align 8
  br label %37

19:                                               ; preds = %2
  store ptr @.str.129, ptr %3, align 8
  br label %37

20:                                               ; preds = %2
  store ptr @.str.130, ptr %3, align 8
  br label %37

21:                                               ; preds = %2
  store ptr @.str.131, ptr %3, align 8
  br label %37

22:                                               ; preds = %2
  store ptr @.str.132, ptr %3, align 8
  br label %37

23:                                               ; preds = %2
  store ptr @.str.133, ptr %3, align 8
  br label %37

24:                                               ; preds = %2
  store ptr @.str.134, ptr %3, align 8
  br label %37

25:                                               ; preds = %2
  store ptr @.str.135, ptr %3, align 8
  br label %37

26:                                               ; preds = %2
  store ptr @.str.136, ptr %3, align 8
  br label %37

27:                                               ; preds = %2
  store ptr @.str.137, ptr %3, align 8
  br label %37

28:                                               ; preds = %2
  store ptr @.str.138, ptr %3, align 8
  br label %37

29:                                               ; preds = %2
  store ptr @.str.139, ptr %3, align 8
  br label %37

30:                                               ; preds = %2
  store ptr @.str.140, ptr %3, align 8
  br label %37

31:                                               ; preds = %2
  store ptr @.str.141, ptr %3, align 8
  br label %37

32:                                               ; preds = %2
  store ptr @.str.142, ptr %3, align 8
  br label %37

33:                                               ; preds = %2
  store ptr @.str.143, ptr %3, align 8
  br label %37

34:                                               ; preds = %2
  store ptr @.str.144, ptr %3, align 8
  br label %37

35:                                               ; preds = %2
  store ptr @.str.145, ptr %3, align 8
  br label %37

36:                                               ; preds = %2
  store ptr null, ptr %3, align 8
  br label %37

37:                                               ; preds = %36, %35, %34, %33, %32, %31, %30, %29, %28, %27, %26, %25, %24, %23, %22, %21, %20, %19, %18, %17, %16, %15, %14, %13, %12, %11, %10, %9, %8, %7
  %38 = load ptr, ptr %3, align 8
  ret ptr %38
}