; Function Attrs: mustprogress nofree norecurse nosync nounwind willreturn memory(none) uwtable
define noundef ptr @_ZNK7glslang11HlslGrammar13getTypeStringENS_15EHlslTokenClassE(ptr nocapture nonnull readnone align 8 %0, i32 noundef %1) local_unnamed_addr #3 align 2 {
  switch i32 %1, label %31 [
    i32 15, label %32
    i32 45, label %3
    i32 161, label %4
    i32 162, label %5
    i32 163, label %6
    i32 164, label %7
    i32 165, label %8
    i32 166, label %9
    i32 167, label %10
    i32 168, label %11
    i32 169, label %12
    i32 170, label %13
    i32 171, label %14
    i32 172, label %15
    i32 173, label %16
    i32 174, label %17
    i32 175, label %18
    i32 176, label %19
    i32 40, label %20
    i32 46, label %21
    i32 47, label %22
    i32 41, label %23
    i32 42, label %24
    i32 48, label %25
    i32 49, label %26
    i32 50, label %27
    i32 51, label %28
    i32 313, label %29
    i32 22, label %30
  ]

3:                                                ; preds = %2
  br label %32

4:                                                ; preds = %2
  br label %32

5:                                                ; preds = %2
  br label %32

6:                                                ; preds = %2
  br label %32

7:                                                ; preds = %2
  br label %32

8:                                                ; preds = %2
  br label %32

9:                                                ; preds = %2
  br label %32

10:                                               ; preds = %2
  br label %32

11:                                               ; preds = %2
  br label %32

12:                                               ; preds = %2
  br label %32

13:                                               ; preds = %2
  br label %32

14:                                               ; preds = %2
  br label %32

15:                                               ; preds = %2
  br label %32

16:                                               ; preds = %2
  br label %32

17:                                               ; preds = %2
  br label %32

18:                                               ; preds = %2
  br label %32

19:                                               ; preds = %2
  br label %32

20:                                               ; preds = %2
  br label %32

21:                                               ; preds = %2
  br label %32

22:                                               ; preds = %2
  br label %32

23:                                               ; preds = %2
  br label %32

24:                                               ; preds = %2
  br label %32

25:                                               ; preds = %2
  br label %32

26:                                               ; preds = %2
  br label %32

27:                                               ; preds = %2
  br label %32

28:                                               ; preds = %2
  br label %32

29:                                               ; preds = %2
  br label %32

30:                                               ; preds = %2
  br label %32

31:                                               ; preds = %2
  br label %32

32:                                               ; preds = %2, %31, %30, %29, %28, %27, %26, %25, %24, %23, %22, %21, %20, %19, %18, %17, %16, %15, %14, %13, %12, %11, %10, %9, %8, %7, %6, %5, %4, %3
  %.0 = phi ptr [ null, %31 ], [ @.str.145, %30 ], [ @.str.144, %29 ], [ @.str.143, %28 ], [ @.str.142, %27 ], [ @.str.141, %26 ], [ @.str.140, %25 ], [ @.str.139, %24 ], [ @.str.138, %23 ], [ @.str.137, %22 ], [ @.str.136, %21 ], [ @.str.135, %20 ], [ @.str.134, %19 ], [ @.str.133, %18 ], [ @.str.132, %17 ], [ @.str.131, %16 ], [ @.str.130, %15 ], [ @.str.129, %14 ], [ @.str.128, %13 ], [ @.str.127, %12 ], [ @.str.126, %11 ], [ @.str.125, %10 ], [ @.str.124, %9 ], [ @.str.123, %8 ], [ @.str.122, %7 ], [ @.str.121, %6 ], [ @.str.120, %5 ], [ @.str.119, %4 ], [ @.str.118, %3 ], [ @.str.117, %2 ]
  ret ptr %.0
}